target datalayout = "e-m:e-p270:32:32-p271:32:32-p272:64:64-i64:64-i128:128-f80:128-n8:16:32:64-S128"
target triple = "x86_64-pc-linux-gnu"

%struct._dcerpc_info = type { ptr, i32, i64, i8, i8, i8, i32, i32, i32, i32, i32, i32, i32, i32, ptr, ptr, ptr, ptr, %struct.anon }
%struct.anon = type { i8, ptr, ptr, ptr, i8 }

@hf_netlogon_reserved = internal global i32 0, align 4
@hf_netlogon_dummy = internal global i32 0, align 4

; Function Attrs: null_pointer_is_valid sspstrong uwtable
define internal i32 @netlogon_dissect_DELTA_RENAME(ptr noundef %0, i32 noundef %1, ptr noundef %2, ptr noundef %3, ptr noundef %4, ptr noundef %5) #0 {
  %7 = alloca ptr, align 8
  %8 = alloca i32, align 4
  %9 = alloca ptr, align 8
  %10 = alloca ptr, align 8
  %11 = alloca ptr, align 8
  %12 = alloca ptr, align 8
  store ptr %0, ptr %7, align 8
  store i32 %1, ptr %8, align 4
  store ptr %2, ptr %9, align 8
  store ptr %3, ptr %10, align 8
  store ptr %4, ptr %11, align 8
  store ptr %5, ptr %12, align 8
  %13 = load ptr, ptr %7, align 8
  %14 = load i32, ptr %8, align 4
  %15 = load ptr, ptr %9, align 8
  %16 = load ptr, ptr %10, align 8
  %17 = load ptr, ptr %11, align 8
  %18 = load ptr, ptr %12, align 8
  %19 = load ptr, ptr %11, align 8
  %20 = getelementptr inbounds nuw %struct._dcerpc_info, ptr %19, i32 0, i32 13
  %21 = load i32, ptr %20, align 8
  %22 = call i32 @dissect_ndr_counted_string(ptr noundef %13, i32 noundef %14, ptr noundef %15, ptr noundef %16, ptr noundef %17, ptr noundef %18, i32 noundef %21, i32 noundef 0)
  store i32 %22, ptr %8, align 4
  %23 = load ptr, ptr %7, align 8
  %24 = load i32, ptr %8, align 4
  %25 = load ptr, ptr %9, align 8
  %26 = load ptr, ptr %10, align 8
  %27 = load ptr, ptr %11, align 8
  %28 = load ptr, ptr %12, align 8
  %29 = load ptr, ptr %11, align 8
  %30 = getelementptr inbounds nuw %struct._dcerpc_info, ptr %29, i32 0, i32 13
  %31 = load i32, ptr %30, align 8
  %32 = call i32 @dissect_ndr_counted_string(ptr noundef %23, i32 noundef %24, ptr noundef %25, ptr noundef %26, ptr noundef %27, ptr noundef %28, i32 noundef %31, i32 noundef 0)
  store i32 %32, ptr %8, align 4
  %33 = load ptr, ptr %7, align 8
  %34 = load i32, ptr %8, align 4
  %35 = load ptr, ptr %9, align 8
  %36 = load ptr, ptr %10, align 8
  %37 = load ptr, ptr %11, align 8
  %38 = load ptr, ptr %12, align 8
  %39 = load i32, ptr @hf_netlogon_dummy, align 4
  %40 = call i32 @dissect_ndr_counted_string(ptr noundef %33, i32 noundef %34, ptr noundef %35, ptr noundef %36, ptr noundef %37, ptr noundef %38, i32 noundef %39, i32 noundef 0)
  store i32 %40, ptr %8, align 4
  %41 = load ptr, ptr %7, align 8
  %42 = load i32, ptr %8, align 4
  %43 = load ptr, ptr %9, align 8
  %44 = load ptr, ptr %10, align 8
  %45 = load ptr, ptr %11, align 8
  %46 = load ptr, ptr %12, align 8
  %47 = load i32, ptr @hf_netlogon_dummy, align 4
  %48 = call i32 @dissect_ndr_counted_string(ptr noundef %41, i32 noundef %42, ptr noundef %43, ptr noundef %44, ptr noundef %45, ptr noundef %46, i32 noundef %47, i32 noundef 0)
  store i32 %48, ptr %8, align 4
  %49 = load ptr, ptr %7, align 8
  %50 = load i32, ptr %8, align 4
  %51 = load ptr, ptr %9, align 8
  %52 = load ptr, ptr %10, align 8
  %53 = load ptr, ptr %11, align 8
  %54 = load ptr, ptr %12, align 8
  %55 = load i32, ptr @hf_netlogon_dummy, align 4
  %56 = call i32 @dissect_ndr_counted_string(ptr noundef %49, i32 noundef %50, ptr noundef %51, ptr noundef %52, ptr noundef %53, ptr noundef %54, i32 noundef %55, i32 noundef 0)
  store i32 %56, ptr %8, align 4
  %57 = load ptr, ptr %7, align 8
  %58 = load i32, ptr %8, align 4
  %59 = load ptr, ptr %9, align 8
  %60 = load ptr, ptr %10, align 8
  %61 = load ptr, ptr %11, align 8
  %62 = load ptr, ptr %12, align 8
  %63 = load i32, ptr @hf_netlogon_dummy, align 4
  %64 = call i32 @dissect_ndr_counted_string(ptr noundef %57, i32 noundef %58, ptr noundef %59, ptr noundef %60, ptr noundef %61, ptr noundef %62, i32 noundef %63, i32 noundef 0)
  store i32 %64, ptr %8, align 4
  %65 = load ptr, ptr %7, align 8
  %66 = load i32, ptr %8, align 4
  %67 = load ptr, ptr %9, align 8
  %68 = load ptr, ptr %10, align 8
  %69 = load ptr, ptr %11, align 8
  %70 = load ptr, ptr %12, align 8
  %71 = load i32, ptr @hf_netlogon_reserved, align 4
  %72 = call i32 @dissect_ndr_uint32(ptr noundef %65, i32 noundef %66, ptr noundef %67, ptr noundef %68, ptr noundef %69, ptr noundef %70, i32 noundef %71, ptr noundef null)
  store i32 %72, ptr %8, align 4
  %73 = load ptr, ptr %7, align 8
  %74 = load i32, ptr %8, align 4
  %75 = load ptr, ptr %9, align 8
  %76 = load ptr, ptr %10, align 8
  %77 = load ptr, ptr %11, align 8
  %78 = load ptr, ptr %12, align 8
  %79 = load i32, ptr @hf_netlogon_reserved, align 4
  %80 = call i32 @dissect_ndr_uint32(ptr noundef %73, i32 noundef %74, ptr noundef %75, ptr noundef %76, ptr noundef %77, ptr noundef %78, i32 noundef %79, ptr noundef null)
  store i32 %80, ptr %8, align 4
  %81 = load ptr, ptr %7, align 8
  %82 = load i32, ptr %8, align 4
  %83 = load ptr, ptr %9, align 8
  %84 = load ptr, ptr %10, align 8
  %85 = load ptr, ptr %11, align 8
  %86 = load ptr, ptr %12, align 8
  %87 = load i32, ptr @hf_netlogon_reserved, align 4
  %88 = call i32 @dissect_ndr_uint32(ptr noundef %81, i32 noundef %82, ptr noundef %83, ptr noundef %84, ptr noundef %85, ptr noundef %86, i32 noundef %87, ptr noundef null)
  store i32 %88, ptr %8, align 4
  %89 = load ptr, ptr %7, align 8
  %90 = load i32, ptr %8, align 4
  %91 = load ptr, ptr %9, align 8
  %92 = load ptr, ptr %10, align 8
  %93 = load ptr, ptr %11, align 8
  %94 = load ptr, ptr %12, align 8
  %95 = load i32, ptr @hf_netlogon_reserved, align 4
  %96 = call i32 @dissect_ndr_uint32(ptr noundef %89, i32 noundef %90, ptr noundef %91, ptr noundef %92, ptr noundef %93, ptr noundef %94, i32 noundef %95, ptr noundef null)
  store i32 %96, ptr %8, align 4
  %97 = load i32, ptr %8, align 4
  ret i32 %97
}